target datalayout = "e-m:e-p270:32:32-p271:32:32-p272:64:64-i64:64-i128:128-f80:128-n8:16:32:64-S128"
target triple = "x86_64-unknown-linux-gnu"

%class.arith_rewriter_core = type <{ ptr, %class.arith_util, %class.scoped_ptr, i8, i8, i8, [5 x i8] }>
%class.arith_util = type { ptr, ptr }
%class.scoped_ptr = type { ptr }
%class.arith_rewriter = type { %class.poly_rewriter.base, i8, i8, i8, i8, i8, i8, i8, i8, i32 }
%class.poly_rewriter.base = type <{ %class.arith_rewriter_core.base, [5 x i8], ptr, %class.obj_map.29, i8, i8, [2 x i8], i32, i8, i8, i8, i8 }>
%class.arith_rewriter_core.base = type <{ ptr, %class.arith_util, %class.scoped_ptr, i8, i8, i8 }>
%class.obj_map.29 = type { %class.core_hashtable.30 }
%class.core_hashtable.30 = type <{ ptr, i32, i32, i32, [4 x i8] }>
%class.decl = type { %class.ast, %class.symbol, ptr }
%class.ast = type { i32, i24, i32, i32 }
%class.symbol = type { ptr }
%class.obj_ref = type { ptr, ptr }
%class.app = type { %class.expr, ptr, i32, [0 x ptr] }
%class.expr = type { %class.ast }
%class.decl_info = type <{ i32, i32, %class.vector.71, i8, [7 x i8] }>
%class.vector.71 = type { ptr }

; Function Attrs: mustprogress nounwind uwtable
define linkonce_odr hidden noundef i32 @_ZNK17arith_recognizers13get_family_idEv(ptr noundef nonnull align 1 dereferenceable(1) %this) #5 comdat align 2 {
entry:
  %this.addr = alloca ptr, align 8
  store ptr %this, ptr %this.addr, align 8
  ret i32 5
}

; Function Attrs: mustprogress nounwind uwtable
define linkonce_odr hidden noundef i32 @_ZNK9decl_info13get_family_idEv(ptr noundef nonnull align 8 dereferenceable(17) %this) #5 comdat align 2 {
entry:
  %this.addr = alloca ptr, align 8
  store ptr %this, ptr %this.addr, align 8
  %this1 = load ptr, ptr %this.addr, align 8
  %m_family_id = getelementptr inbounds %class.decl_info, ptr %this1, i32 0, i32 0
  %0 = load i32, ptr %m_family_id, align 8
  ret i32 %0
}

; Function Attrs: mustprogress nounwind uwtable
define linkonce_odr hidden noundef i32 @_ZNK3ast13get_ref_countEv(ptr noundef nonnull align 4 dereferenceable(16) %this) #5 comdat align 2 {
entry:
  %this.addr = alloca ptr, align 8
  store ptr %this, ptr %this.addr, align 8
  %this1 = load ptr, ptr %this.addr, align 8
  %m_ref_count = getelementptr inbounds %class.ast, ptr %this1, i32 0, i32 2
  %0 = load i32, ptr %m_ref_count, align 4
  ret i32 %0
}

; Function Attrs: mustprogress nounwind uwtable
define linkonce_odr hidden void @_ZN3ast7dec_refEv(ptr noundef nonnull align 4 dereferenceable(16) %this) #5 comdat align 2 {
entry:
  %this.addr = alloca ptr, align 8
  store ptr %this, ptr %this.addr, align 8
  %this1 = load ptr, ptr %this.addr, align 8
  %m_ref_count = getelementptr inbounds %class.ast, ptr %this1, i32 0, i32 2
  %0 = load i32, ptr %m_ref_count, align 4
  %dec = add i32 %0, -1
  store i32 %dec, ptr %m_ref_count, align 4
  ret void
}

; Function Attrs: mustprogress uwtable
define linkonce_odr hidden noundef i32 @_ZNK19arith_rewriter_core7get_fidEv(ptr noundef nonnull align 8 dereferenceable(35) %this) #4 comdat align 2 {
entry:
  %this.addr = alloca ptr, align 8
  store ptr %this, ptr %this.addr, align 8
  %this1 = load ptr, ptr %this.addr, align 8
  %m_util = getelementptr inbounds %class.arith_rewriter_core, ptr %this1, i32 0, i32 1
  %call = call noundef i32 @_ZNK17arith_recognizers13get_family_idEv(ptr noundef nonnull align 1 dereferenceable(1) %m_util)
  ret i32 %call
}

; Function Attrs: mustprogress uwtable
define linkonce_odr hidden noundef i32 @_ZNK4decl13get_family_idEv(ptr noundef nonnull align 8 dereferenceable(32) %this) #4 comdat align 2 {
entry:
  %this.addr = alloca ptr, align 8
  store ptr %this, ptr %this.addr, align 8
  %this1 = load ptr, ptr %this.addr, align 8
  %m_info = getelementptr inbounds %class.decl, ptr %this1, i32 0, i32 2
  %0 = load ptr, ptr %m_info, align 8
  %cmp = icmp eq ptr %0, null
  br i1 %cmp, label %cond.true, label %cond.false

cond.true:                                        ; preds = %entry
  br label %cond.end

cond.false:                                       ; preds = %entry
  %m_info2 = getelementptr inbounds %class.decl, ptr %this1, i32 0, i32 2
  %1 = load ptr, ptr %m_info2, align 8
  %call = call noundef i32 @_ZNK9decl_info13get_family_idEv(ptr noundef nonnull align 8 dereferenceable(17) %1)
  br label %cond.end

cond.end:                                         ; preds = %cond.false, %cond.true
  %cond = phi i32 [ -1, %cond.true ], [ %call, %cond.false ]
  ret i32 %cond
}

; Function Attrs: mustprogress nounwind uwtable
define linkonce_odr hidden noundef ptr @_ZNK3app8get_declEv(ptr noundef nonnull align 8 dereferenceable(32) %this) #5 comdat align 2 {
entry:
  %this.addr = alloca ptr, align 8
  store ptr %this, ptr %this.addr, align 8
  %this1 = load ptr, ptr %this.addr, align 8
  %m_decl = getelementptr inbounds %class.app, ptr %this1, i32 0, i32 1
  %0 = load ptr, ptr %m_decl, align 8
  ret ptr %0
}

; Function Attrs: mustprogress uwtable
define linkonce_odr hidden void @_ZN11ast_manager7dec_refEP3ast(ptr noundef nonnull align 8 dereferenceable(976) %this, ptr noundef %n) #4 comdat align 2 {
entry:
  %this.addr = alloca ptr, align 8
  %n.addr = alloca ptr, align 8
  store ptr %this, ptr %this.addr, align 8
  store ptr %n, ptr %n.addr, align 8
  %this1 = load ptr, ptr %this.addr, align 8
  %0 = load ptr, ptr %n.addr, align 8
  %tobool = icmp ne ptr %0, null
  br i1 %tobool, label %if.then, label %if.end3

if.then:                                          ; preds = %entry
  %1 = load ptr, ptr %n.addr, align 8
  call void @_ZN3ast7dec_refEv(ptr noundef nonnull align 4 dereferenceable(16) %1)
  %2 = load ptr, ptr %n.addr, align 8
  %call = call noundef i32 @_ZNK3ast13get_ref_countEv(ptr noundef nonnull align 4 dereferenceable(16) %2)
  %cmp = icmp eq i32 %call, 0
  br i1 %cmp, label %if.then2, label %if.end

if.then2:                                         ; preds = %if.then
  %3 = load ptr, ptr %n.addr, align 8
  call void @_ZN11ast_manager11delete_nodeEP3ast(ptr noundef nonnull align 8 dereferenceable(976) %this1, ptr noundef %3)
  br label %if.end

if.end:                                           ; preds = %if.then2, %if.then
  br label %if.end3

if.end3:                                          ; preds = %if.end, %entry
  ret void
}

; Function Attrs: mustprogress nounwind uwtable
define linkonce_odr hidden void @_ZN3ast7inc_refEv(ptr noundef nonnull align 4 dereferenceable(16) %this) #5 comdat align 2 {
entry:
  %this.addr = alloca ptr, align 8
  store ptr %this, ptr %this.addr, align 8
  %this1 = load ptr, ptr %this.addr, align 8
  %m_ref_count = getelementptr inbounds %class.ast, ptr %this1, i32 0, i32 2
  %0 = load i32, ptr %m_ref_count, align 4
  %inc = add i32 %0, 1
  store i32 %inc, ptr %m_ref_count, align 4
  ret void
}

; Function Attrs: mustprogress uwtable
define weak_odr hidden noundef i32 @_ZNK13poly_rewriterI19arith_rewriter_coreE7get_fidEv(ptr noundef nonnull align 8 dereferenceable(84) %this) #4 comdat align 2 {
entry:
  %this.addr = alloca ptr, align 8
  store ptr %this, ptr %this.addr, align 8
  %this1 = load ptr, ptr %this.addr, align 8
  %call = call noundef i32 @_ZNK19arith_rewriter_core7get_fidEv(ptr noundef nonnull align 8 dereferenceable(35) %this1)
  ret i32 %call
}

; Function Attrs: mustprogress uwtable
define linkonce_odr hidden noundef i32 @_ZNK3app13get_family_idEv(ptr noundef nonnull align 8 dereferenceable(32) %this) #4 comdat align 2 {
entry:
  %this.addr = alloca ptr, align 8
  store ptr %this, ptr %this.addr, align 8
  %this1 = load ptr, ptr %this.addr, align 8
  %call = call noundef ptr @_ZNK3app8get_declEv(ptr noundef nonnull align 8 dereferenceable(32) %this1)
  %call2 = call noundef i32 @_ZNK4decl13get_family_idEv(ptr noundef nonnull align 8 dereferenceable(32) %call)
  ret i32 %call2
}

; Function Attrs: mustprogress nounwind uwtable
define linkonce_odr hidden noundef ptr @_Z6to_appP3ast(ptr noundef %n) #5 comdat {
entry:
  %n.addr = alloca ptr, align 8
  store ptr %n, ptr %n.addr, align 8
  %0 = load ptr, ptr %n.addr, align 8
  ret ptr %0
}

; Function Attrs: mustprogress nounwind uwtable
define linkonce_odr hidden noundef i32 @_ZNK3ast8get_kindEv(ptr noundef nonnull align 4 dereferenceable(16) %this) #5 comdat align 2 {
entry:
  %this.addr = alloca ptr, align 8
  store ptr %this, ptr %this.addr, align 8
  %this1 = load ptr, ptr %this.addr, align 8
  %m_kind = getelementptr inbounds %class.ast, ptr %this1, i32 0, i32 1
  %bf.load = load i32, ptr %m_kind, align 4
  %bf.clear = and i32 %bf.load, 65535
  ret i32 %bf.clear
}

; Function Attrs: mustprogress uwtable
define linkonce_odr hidden void @_ZN7obj_refI4expr11ast_managerE7dec_refEv(ptr noundef nonnull align 8 dereferenceable(16) %this) #4 comdat align 2 {
entry:
  %this.addr = alloca ptr, align 8
  store ptr %this, ptr %this.addr, align 8
  %this1 = load ptr, ptr %this.addr, align 8
  %m_obj = getelementptr inbounds %class.obj_ref, ptr %this1, i32 0, i32 0
  %0 = load ptr, ptr %m_obj, align 8
  %tobool = icmp ne ptr %0, null
  br i1 %tobool, label %if.then, label %if.end

if.then:                                          ; preds = %entry
  %m_manager = getelementptr inbounds %class.obj_ref, ptr %this1, i32 0, i32 1
  %1 = load ptr, ptr %m_manager, align 8
  %m_obj2 = getelementptr inbounds %class.obj_ref, ptr %this1, i32 0, i32 0
  %2 = load ptr, ptr %m_obj2, align 8
  call void @_ZN11ast_manager7dec_refEP3ast(ptr noundef nonnull align 8 dereferenceable(976) %1, ptr noundef %2)
  br label %if.end

if.end:                                           ; preds = %if.then, %entry
  ret void
}

; Function Attrs: mustprogress uwtable
define linkonce_odr hidden void @_ZN11ast_manager7inc_refEP3ast(ptr noundef nonnull align 8 dereferenceable(976) %this, ptr noundef %n) #4 comdat align 2 {
entry:
  %this.addr = alloca ptr, align 8
  %n.addr = alloca ptr, align 8
  store ptr %this, ptr %this.addr, align 8
  store ptr %n, ptr %n.addr, align 8
  %0 = load ptr, ptr %n.addr, align 8
  %tobool = icmp ne ptr %0, null
  br i1 %tobool, label %if.then, label %if.end

if.then:                                          ; preds = %entry
  %1 = load ptr, ptr %n.addr, align 8
  call void @_ZN3ast7inc_refEv(ptr noundef nonnull align 4 dereferenceable(16) %1)
  br label %if.end

if.end:                                           ; preds = %if.then, %entry
  ret void
}

; Function Attrs: mustprogress uwtable
define hidden noundef zeroext i1 @_ZNK14arith_rewriter13is_arith_termEP4expr(ptr noundef nonnull align 8 dereferenceable(96) %this, ptr noundef %n) #4 align 2 {
entry:
  %this.addr = alloca ptr, align 8
  %n.addr = alloca ptr, align 8
  store ptr %this, ptr %this.addr, align 8
  store ptr %n, ptr %n.addr, align 8
  %this1 = load ptr, ptr %this.addr, align 8
  %0 = load ptr, ptr %n.addr, align 8
  %call = call noundef i32 @_ZNK3ast8get_kindEv(ptr noundef nonnull align 4 dereferenceable(16) %0)
  %cmp = icmp eq i32 %call, 0
  br i1 %cmp, label %land.rhs, label %land.end

land.rhs:                                         ; preds = %entry
  %1 = load ptr, ptr %n.addr, align 8
  %call2 = call noundef ptr @_Z6to_appP3ast(ptr noundef %1)
  %call3 = call noundef i32 @_ZNK3app13get_family_idEv(ptr noundef nonnull align 8 dereferenceable(32) %call2)
  %call4 = call noundef i32 @_ZNK13poly_rewriterI19arith_rewriter_coreE7get_fidEv(ptr noundef nonnull align 8 dereferenceable(84) %this1)
  %cmp5 = icmp eq i32 %call3, %call4
  br label %land.end

land.end:                                         ; preds = %land.rhs, %entry
  %2 = phi i1 [ false, %entry ], [ %cmp5, %land.rhs ]
  ret i1 %2
}

; Function Attrs: mustprogress uwtable
define linkonce_odr hidden noundef nonnull align 8 dereferenceable(16) ptr @_ZN7obj_refI4expr11ast_managerEaSEPS0_(ptr noundef nonnull align 8 dereferenceable(16) %this, ptr noundef %n) #4 comdat align 2 {
entry:
  %this.addr = alloca ptr, align 8
  %n.addr = alloca ptr, align 8
  store ptr %this, ptr %this.addr, align 8
  store ptr %n, ptr %n.addr, align 8
  %this1 = load ptr, ptr %this.addr, align 8
  %0 = load ptr, ptr %n.addr, align 8
  %tobool = icmp ne ptr %0, null
  br i1 %tobool, label %if.then, label %if.end

if.then:                                          ; preds = %entry
  %m_manager = getelementptr inbounds %class.obj_ref, ptr %this1, i32 0, i32 1
  %1 = load ptr, ptr %m_manager, align 8
  %2 = load ptr, ptr %n.addr, align 8
  call void @_ZN11ast_manager7inc_refEP3ast(ptr noundef nonnull align 8 dereferenceable(976) %1, ptr noundef %2)
  br label %if.end

if.end:                                           ; preds = %if.then, %entry
  call void @_ZN7obj_refI4expr11ast_managerE7dec_refEv(ptr noundef nonnull align 8 dereferenceable(16) %this1)
  %3 = load ptr, ptr %n.addr, align 8
  %m_obj = getelementptr inbounds %class.obj_ref, ptr %this1, i32 0, i32 0
  store ptr %3, ptr %m_obj, align 8
  ret ptr %this1
}

; Function Attrs: mustprogress uwtable
define linkonce_odr hidden noundef ptr @_ZN11ast_manager6mk_andEP4exprS1_(ptr noundef nonnull align 8 dereferenceable(976) %this, ptr noundef %arg1, ptr noundef %arg2) #4 comdat align 2 {
entry:
  %this.addr = alloca ptr, align 8
  %arg1.addr = alloca ptr, align 8
  %arg2.addr = alloca ptr, align 8
  store ptr %this, ptr %this.addr, align 8
  store ptr %arg1, ptr %arg1.addr, align 8
  store ptr %arg2, ptr %arg2.addr, align 8
  %this1 = load ptr, ptr %this.addr, align 8
  %0 = load ptr, ptr %arg1.addr, align 8
  %1 = load ptr, ptr %arg2.addr, align 8
  %call = call noundef ptr @_ZN11ast_manager6mk_appEiiP4exprS1_(ptr noundef nonnull align 8 dereferenceable(976) %this1, i32 noundef 0, i32 noundef 5, ptr noundef %0, ptr noundef %1)
  ret ptr %call
}

; Function Attrs: mustprogress uwtable
define linkonce_odr hidden noundef ptr @_ZNK10arith_util5mk_geEP4exprS1_(ptr noundef nonnull align 8 dereferenceable(16) %this, ptr noundef %arg1, ptr noundef %arg2) #4 comdat align 2 {
entry:
  %this.addr = alloca ptr, align 8
  %arg1.addr = alloca ptr, align 8
  %arg2.addr = alloca ptr, align 8
  store ptr %this, ptr %this.addr, align 8
  store ptr %arg1, ptr %arg1.addr, align 8
  store ptr %arg2, ptr %arg2.addr, align 8
  %this1 = load ptr, ptr %this.addr, align 8
  %m_manager = getelementptr inbounds %class.arith_util, ptr %this1, i32 0, i32 0
  %0 = load ptr, ptr %m_manager, align 8
  %1 = load ptr, ptr %arg1.addr, align 8
  %2 = load ptr, ptr %arg2.addr, align 8
  %call = call noundef ptr @_ZN11ast_manager6mk_appEiiP4exprS1_(ptr noundef nonnull align 8 dereferenceable(976) %0, i32 noundef 5, i32 noundef 3, ptr noundef %1, ptr noundef %2)
  ret ptr %call
}

; Function Attrs: mustprogress uwtable
define linkonce_odr hidden noundef ptr @_ZNK10arith_util5mk_leEP4exprS1_(ptr noundef nonnull align 8 dereferenceable(16) %this, ptr noundef %arg1, ptr noundef %arg2) #4 comdat align 2 {
entry:
  %this.addr = alloca ptr, align 8
  %arg1.addr = alloca ptr, align 8
  %arg2.addr = alloca ptr, align 8
  store ptr %this, ptr %this.addr, align 8
  store ptr %arg1, ptr %arg1.addr, align 8
  store ptr %arg2, ptr %arg2.addr, align 8
  %this1 = load ptr, ptr %this.addr, align 8
  %m_manager = getelementptr inbounds %class.arith_util, ptr %this1, i32 0, i32 0
  %0 = load ptr, ptr %m_manager, align 8
  %1 = load ptr, ptr %arg1.addr, align 8
  %2 = load ptr, ptr %arg2.addr, align 8
  %call = call noundef ptr @_ZN11ast_manager6mk_appEiiP4exprS1_(ptr noundef nonnull align 8 dereferenceable(976) %0, i32 noundef 5, i32 noundef 2, ptr noundef %1, ptr noundef %2)
  ret ptr %call
}

; Function Attrs: mustprogress uwtable
define hidden noundef i32 @_ZN14arith_rewriter10mk_eq_coreEP4exprS1_R7obj_refIS0_11ast_managerE(ptr noundef nonnull align 8 dereferenceable(96) %this, ptr noundef %arg1, ptr noundef %arg2, ptr noundef nonnull align 8 dereferenceable(16) %result) #4 align 2 {
entry:
  %this.addr = alloca ptr, align 8
  %arg1.addr = alloca ptr, align 8
  %arg2.addr = alloca ptr, align 8
  %result.addr = alloca ptr, align 8
  %st = alloca i32, align 4
  store ptr %this, ptr %this.addr, align 8
  store ptr %arg1, ptr %arg1.addr, align 8
  store ptr %arg2, ptr %arg2.addr, align 8
  store ptr %result, ptr %result.addr, align 8
  %this1 = load ptr, ptr %this.addr, align 8
  store i32 5, ptr %st, align 4
  %m_eq2ineq = getelementptr inbounds %class.arith_rewriter, ptr %this1, i32 0, i32 8
  %0 = load i8, ptr %m_eq2ineq, align 1
  %tobool = trunc i8 %0 to i1
  br i1 %tobool, label %if.then, label %if.else

if.then:                                          ; preds = %entry
  %m = getelementptr inbounds %class.arith_rewriter_core, ptr %this1, i32 0, i32 0
  %1 = load ptr, ptr %m, align 8
  %m_util = getelementptr inbounds %class.arith_rewriter_core, ptr %this1, i32 0, i32 1
  %2 = load ptr, ptr %arg1.addr, align 8
  %3 = load ptr, ptr %arg2.addr, align 8
  %call = call noundef ptr @_ZNK10arith_util5mk_leEP4exprS1_(ptr noundef nonnull align 8 dereferenceable(16) %m_util, ptr noundef %2, ptr noundef %3)
  %m_util2 = getelementptr inbounds %class.arith_rewriter_core, ptr %this1, i32 0, i32 1
  %4 = load ptr, ptr %arg1.addr, align 8
  %5 = load ptr, ptr %arg2.addr, align 8
  %call3 = call noundef ptr @_ZNK10arith_util5mk_geEP4exprS1_(ptr noundef nonnull align 8 dereferenceable(16) %m_util2, ptr noundef %4, ptr noundef %5)
  %call4 = call noundef ptr @_ZN11ast_manager6mk_andEP4exprS1_(ptr noundef nonnull align 8 dereferenceable(976) %1, ptr noundef %call, ptr noundef %call3)
  %6 = load ptr, ptr %result.addr, align 8
  %call5 = call noundef nonnull align 8 dereferenceable(16) ptr @_ZN7obj_refI4expr11ast_managerEaSEPS0_(ptr noundef nonnull align 8 dereferenceable(16) %6, ptr noundef %call4)
  store i32 1, ptr %st, align 4
  br label %if.end12

if.else:                                          ; preds = %entry
  %m_arith_lhs = getelementptr inbounds %class.arith_rewriter, ptr %this1, i32 0, i32 1
  %7 = load i8, ptr %m_arith_lhs, align 4
  %tobool6 = trunc i8 %7 to i1
  br i1 %tobool6, label %if.then10, label %lor.lhs.false

lor.lhs.false:                                    ; preds = %if.else
  %8 = load ptr, ptr %arg1.addr, align 8
  %call7 = call noundef zeroext i1 @_ZNK14arith_rewriter13is_arith_termEP4expr(ptr noundef nonnull align 8 dereferenceable(96) %this1, ptr noundef %8)
  br i1 %call7, label %if.then10, label %lor.lhs.false8

lor.lhs.false8:                                   ; preds = %lor.lhs.false
  %9 = load ptr, ptr %arg2.addr, align 8
  %call9 = call noundef zeroext i1 @_ZNK14arith_rewriter13is_arith_termEP4expr(ptr noundef nonnull align 8 dereferenceable(96) %this1, ptr noundef %9)
  br i1 %call9, label %if.then10, label %if.end

if.then10:                                        ; preds = %lor.lhs.false8, %lor.lhs.false, %if.else
  %10 = load ptr, ptr %arg1.addr, align 8
  %11 = load ptr, ptr %arg2.addr, align 8
  %12 = load ptr, ptr %result.addr, align 8
  %call11 = call noundef i32 @_ZN14arith_rewriter16mk_le_ge_eq_coreEP4exprS1_NS_7op_kindER7obj_refIS0_11ast_managerE(ptr noundef nonnull align 8 dereferenceable(96) %this1, ptr noundef %10, ptr noundef %11, i32 noundef 2, ptr noundef nonnull align 8 dereferenceable(16) %12)
  store i32 %call11, ptr %st, align 4
  br label %if.end

if.end:                                           ; preds = %if.then10, %lor.lhs.false8
  br label %if.end12

if.end12:                                         ; preds = %if.end, %if.then
  %13 = load i32, ptr %st, align 4
  %cmp = icmp eq i32 %13, 5
  br i1 %cmp, label %land.lhs.true, label %if.end15

land.lhs.true:                                    ; preds = %if.end12
  %14 = load ptr, ptr %arg1.addr, align 8
  %15 = load ptr, ptr %arg2.addr, align 8
  %16 = load ptr, ptr %result.addr, align 8
  %call13 = call noundef zeroext i1 @_ZN14arith_rewriter9mk_eq_modEP4exprS1_R7obj_refIS0_11ast_managerE(ptr noundef nonnull align 8 dereferenceable(96) %this1, ptr noundef %14, ptr noundef %15, ptr noundef nonnull align 8 dereferenceable(16) %16)
  br i1 %call13, label %if.then14, label %if.end15

if.then14:                                        ; preds = %land.lhs.true
  store i32 1, ptr %st, align 4
  br label %if.end15

if.end15:                                         ; preds = %if.then14, %land.lhs.true, %if.end12
  %17 = load i32, ptr %st, align 4
  ret i32 %17
}