; Function Attrs: mustprogress uwtable
define hidden noundef i32 @_ZN14arith_rewriter10mk_eq_coreEP4exprS1_R7obj_refIS0_11ast_managerE(ptr noundef nonnull align 8 dereferenceable(96) %this, ptr noundef %arg1, ptr noundef %arg2, ptr noundef nonnull align 8 dereferenceable(16) %result) local_unnamed_addr #3 align 2 {
entry:
  %m_eq2ineq = getelementptr inbounds i8, ptr %this, i64 91
  %0 = load i8, ptr %m_eq2ineq, align 1
  %1 = and i8 %0, 1
  %tobool.not = icmp eq i8 %1, 0
  br i1 %tobool.not, label %if.else, label %if.then

if.then:                                          ; preds = %entry
  %2 = load ptr, ptr %this, align 8
  %m_util = getelementptr inbounds i8, ptr %this, i64 8
  %3 = load ptr, ptr %m_util, align 8
  %call.i = tail call noundef ptr @_ZN11ast_manager6mk_appEiiP4exprS1_(ptr noundef nonnull align 8 dereferenceable(976) %3, i32 noundef 5, i32 noundef 2, ptr noundef %arg1, ptr noundef %arg2)
  %4 = load ptr, ptr %m_util, align 8
  %call.i12 = tail call noundef ptr @_ZN11ast_manager6mk_appEiiP4exprS1_(ptr noundef nonnull align 8 dereferenceable(976) %4, i32 noundef 5, i32 noundef 3, ptr noundef %arg1, ptr noundef %arg2)
  %call.i13 = tail call noundef ptr @_ZN11ast_manager6mk_appEiiP4exprS1_(ptr noundef nonnull align 8 dereferenceable(976) %2, i32 noundef 0, i32 noundef 5, ptr noundef %call.i, ptr noundef %call.i12)
  %tobool.not.i = icmp eq ptr %call.i13, null
  br i1 %tobool.not.i, label %if.end.i, label %_ZN11ast_manager7inc_refEP3ast.exit.i

_ZN11ast_manager7inc_refEP3ast.exit.i:            ; preds = %if.then
  %m_ref_count.i.i.i = getelementptr inbounds i8, ptr %call.i13, i64 8
  %5 = load i32, ptr %m_ref_count.i.i.i, align 4
  %inc.i.i.i = add i32 %5, 1
  store i32 %inc.i.i.i, ptr %m_ref_count.i.i.i, align 4
  br label %if.end.i

if.end.i:                                         ; preds = %_ZN11ast_manager7inc_refEP3ast.exit.i, %if.then
  %6 = load ptr, ptr %result, align 8
  %tobool.not.i3.i = icmp eq ptr %6, null
  br i1 %tobool.not.i3.i, label %if.end12.thread27, label %if.then.i.i.i

if.then.i.i.i:                                    ; preds = %if.end.i
  %m_manager.i.i = getelementptr inbounds i8, ptr %result, i64 8
  %7 = load ptr, ptr %m_manager.i.i, align 8
  %m_ref_count.i.i.i.i = getelementptr inbounds i8, ptr %6, i64 8
  %8 = load i32, ptr %m_ref_count.i.i.i.i, align 4
  %dec.i.i.i.i = add i32 %8, -1
  store i32 %dec.i.i.i.i, ptr %m_ref_count.i.i.i.i, align 4
  %cmp.i.i.i = icmp eq i32 %dec.i.i.i.i, 0
  br i1 %cmp.i.i.i, label %if.then2.i.i.i, label %if.end12.thread27

if.then2.i.i.i:                                   ; preds = %if.then.i.i.i
  tail call void @_ZN11ast_manager11delete_nodeEP3ast(ptr noundef nonnull align 8 dereferenceable(976) %7, ptr noundef nonnull %6)
  br label %if.end12.thread27

if.end12.thread27:                                ; preds = %if.then2.i.i.i, %if.then.i.i.i, %if.end.i
  store ptr %call.i13, ptr %result, align 8
  br label %if.end15

if.else:                                          ; preds = %entry
  %m_arith_lhs = getelementptr inbounds i8, ptr %this, i64 84
  %9 = load i8, ptr %m_arith_lhs, align 4
  %10 = and i8 %9, 1
  %tobool6.not = icmp eq i8 %10, 0
  br i1 %tobool6.not, label %lor.lhs.false, label %if.end12

lor.lhs.false:                                    ; preds = %if.else
  %m_kind.i.i = getelementptr inbounds i8, ptr %arg1, i64 4
  %bf.load.i.i = load i32, ptr %m_kind.i.i, align 4
  %bf.clear.i.i = and i32 %bf.load.i.i, 65535
  %cmp.i = icmp eq i32 %bf.clear.i.i, 0
  br i1 %cmp.i, label %land.rhs.i, label %lor.lhs.false8

land.rhs.i:                                       ; preds = %lor.lhs.false
  %m_decl.i.i.i = getelementptr inbounds i8, ptr %arg1, i64 16
  %11 = load ptr, ptr %m_decl.i.i.i, align 8
  %m_info.i.i.i = getelementptr inbounds i8, ptr %11, i64 24
  %12 = load ptr, ptr %m_info.i.i.i, align 8
  %cmp.i.i.i14 = icmp eq ptr %12, null
  br i1 %cmp.i.i.i14, label %lor.lhs.false8, label %_ZNK14arith_rewriter13is_arith_termEP4expr.exit

_ZNK14arith_rewriter13is_arith_termEP4expr.exit:  ; preds = %land.rhs.i
  %13 = load i32, ptr %12, align 8
  %14 = icmp eq i32 %13, 5
  br i1 %14, label %if.end12, label %lor.lhs.false8

lor.lhs.false8:                                   ; preds = %land.rhs.i, %lor.lhs.false, %_ZNK14arith_rewriter13is_arith_termEP4expr.exit
  %m_kind.i.i15 = getelementptr inbounds i8, ptr %arg2, i64 4
  %bf.load.i.i16 = load i32, ptr %m_kind.i.i15, align 4
  %bf.clear.i.i17 = and i32 %bf.load.i.i16, 65535
  %cmp.i18 = icmp eq i32 %bf.clear.i.i17, 0
  br i1 %cmp.i18, label %land.rhs.i19, label %land.lhs.true

land.rhs.i19:                                     ; preds = %lor.lhs.false8
  %m_decl.i.i.i20 = getelementptr inbounds i8, ptr %arg2, i64 16
  %15 = load ptr, ptr %m_decl.i.i.i20, align 8
  %m_info.i.i.i21 = getelementptr inbounds i8, ptr %15, i64 24
  %16 = load ptr, ptr %m_info.i.i.i21, align 8
  %cmp.i.i.i22 = icmp eq ptr %16, null
  br i1 %cmp.i.i.i22, label %land.lhs.true, label %_ZNK14arith_rewriter13is_arith_termEP4expr.exit24

_ZNK14arith_rewriter13is_arith_termEP4expr.exit24: ; preds = %land.rhs.i19
  %17 = load i32, ptr %16, align 8
  %18 = icmp eq i32 %17, 5
  br i1 %18, label %if.end12, label %land.lhs.true

if.end12:                                         ; preds = %if.else, %_ZNK14arith_rewriter13is_arith_termEP4expr.exit, %_ZNK14arith_rewriter13is_arith_termEP4expr.exit24
  %call11 = tail call noundef i32 @_ZN14arith_rewriter16mk_le_ge_eq_coreEP4exprS1_NS_7op_kindER7obj_refIS0_11ast_managerE(ptr noundef nonnull align 8 dereferenceable(96) %this, ptr noundef %arg1, ptr noundef %arg2, i32 noundef 2, ptr noundef nonnull align 8 dereferenceable(16) %result), !range !4
  %cmp = icmp eq i32 %call11, 5
  br i1 %cmp, label %land.lhs.true, label %if.end15

land.lhs.true:                                    ; preds = %land.rhs.i19, %lor.lhs.false8, %_ZNK14arith_rewriter13is_arith_termEP4expr.exit24, %if.end12
  %call13 = tail call noundef zeroext i1 @_ZN14arith_rewriter9mk_eq_modEP4exprS1_R7obj_refIS0_11ast_managerE(ptr noundef nonnull align 8 dereferenceable(96) %this, ptr noundef %arg1, ptr noundef %arg2, ptr noundef nonnull align 8 dereferenceable(16) %result)
  %spec.select = select i1 %call13, i32 1, i32 5
  br label %if.end15

if.end15:                                         ; preds = %if.end12.thread27, %land.lhs.true, %if.end12
  %st.1 = phi i32 [ %call11, %if.end12 ], [ %spec.select, %land.lhs.true ], [ 1, %if.end12.thread27 ]
  ret i32 %st.1
}